; Function Attrs: nofree norecurse nosync nounwind memory(argmem: read) uwtable
define hidden ptr @je_psset_pick_purge(ptr noundef readonly captures(none) %0) local_unnamed_addr #4 {
  %2 = getelementptr inbounds nuw i8, ptr %0, i64 5304
  %3 = getelementptr inbounds nuw i8, ptr %0, i64 5312
  %.140.i4.i = load i64, ptr %3, align 8, !tbaa !38
  %4 = icmp eq i64 %.140.i4.i, 0
  br i1 %4, label %.lr.ph.i, label %fb_fls.exit.thread8

.lr.ph.i:                                         ; preds = %1, %6
  %.038.i5.i = phi i64 [ %7, %6 ], [ 1, %1 ]
  %5 = icmp eq i64 %.038.i5.i, 0
  br i1 %5, label %fb_fls.exit.thread, label %6

6:                                                ; preds = %.lr.ph.i
  %7 = add nsw i64 %.038.i5.i, -1
  %8 = getelementptr inbounds i64, ptr %2, i64 %7
  %.140.i.i = load i64, ptr %8, align 8, !tbaa !38
  %9 = icmp eq i64 %.140.i.i, 0
  br i1 %9, label %.lr.ph.i, label %fb_fls.exit, !llvm.loop !47

fb_fls.exit:                                      ; preds = %6
  %10 = shl i64 %7, 6
  %11 = icmp slt i64 %10, 0
  br i1 %11, label %fb_fls.exit.thread, label %fb_fls.exit.thread8

fb_fls.exit.thread8:                              ; preds = %1, %fb_fls.exit
  %.140.i.lcssa.i12 = phi i64 [ %.140.i.i, %fb_fls.exit ], [ %.140.i4.i, %1 ]
  %.038.i.lcssa.i11 = phi i64 [ %10, %fb_fls.exit ], [ 64, %1 ]
  %12 = tail call range(i64 0, 65) i64 @llvm.ctlz.i64(i64 range(i64 1, 0) %.140.i.lcssa.i12, i1 true)
  %13 = getelementptr inbounds nuw i8, ptr %0, i64 4280
  %.038.i.lcssa.i.masked = and i64 %.038.i.lcssa.i11, 4294967232
  %14 = or disjoint i64 %12, %.038.i.lcssa.i.masked
  %15 = xor i64 %14, 63
  %16 = getelementptr inbounds nuw [128 x %struct.hpdata_purge_list_t], ptr %13, i64 0, i64 %15
  %.val = load ptr, ptr %16, align 8, !tbaa !34
  br label %fb_fls.exit.thread

fb_fls.exit.thread:                               ; preds = %.lr.ph.i, %fb_fls.exit, %fb_fls.exit.thread8
  %.0 = phi ptr [ %.val, %fb_fls.exit.thread8 ], [ null, %fb_fls.exit ], [ null, %.lr.ph.i ]
  ret ptr %.0
}